target datalayout = "e-m:e-p270:32:32-p271:32:32-p272:64:64-i64:64-i128:128-f80:128-n8:16:32:64-S128"
target triple = "x86_64-pc-linux-gnu"

%"class.cv::dynafu::Quaternion" = type { %"class.cv::Vec" }
%"class.cv::Vec" = type { %"class.cv::Matx" }
%"class.cv::Matx" = type { [4 x float] }
%"class.cv::dynafu::DualQuaternion" = type { %"class.cv::dynafu::Quaternion", %"class.cv::dynafu::Quaternion" }

; Function Attrs: inlinehint mustprogress nounwind uwtable
define internal noundef float @_ZN2cvL13saturate_castIfEET_f(float noundef %0) #3 {
  %2 = alloca float, align 4
  store float %0, ptr %2, align 4, !tbaa !10
  %3 = load float, ptr %2, align 4, !tbaa !10
  ret float %3
}

; Function Attrs: inlinehint mustprogress nounwind uwtable
define linkonce_odr hidden noundef nonnull align 4 dereferenceable(4) ptr @_ZN2cv3VecIfLi4EEixEi(ptr noundef nonnull align 4 dereferenceable(16) %0, i32 noundef %1) #3 comdat align 2 {
  %3 = alloca ptr, align 8
  %4 = alloca i32, align 4
  store ptr %0, ptr %3, align 8, !tbaa !8
  store i32 %1, ptr %4, align 4, !tbaa !16
  %5 = load ptr, ptr %3, align 8
  %6 = getelementptr inbounds nuw %"class.cv::Matx", ptr %5, i32 0, i32 0
  %7 = load i32, ptr %4, align 4, !tbaa !16
  %8 = sext i32 %7 to i64
  %9 = getelementptr inbounds [4 x float], ptr %6, i64 0, i64 %8
  ret ptr %9
}

; Function Attrs: inlinehint mustprogress nounwind uwtable
define internal noundef double @_ZN2cvL9normL2SqrIfdEET0_PKT_i(ptr noundef %0, i32 noundef %1) #3 {
  %3 = alloca ptr, align 8
  %4 = alloca i32, align 4
  %5 = alloca double, align 8
  %6 = alloca i32, align 4
  %7 = alloca double, align 8
  store ptr %0, ptr %3, align 8, !tbaa !57
  store i32 %1, ptr %4, align 4, !tbaa !16
  call void @llvm.lifetime.start.p0(i64 8, ptr %5) #13
  store double 0.000000e+00, ptr %5, align 8, !tbaa !59
  call void @llvm.lifetime.start.p0(i64 4, ptr %6) #13
  store i32 0, ptr %6, align 4, !tbaa !16
  br label %8

8:                                                ; preds = %23, %2
  %9 = load i32, ptr %6, align 4, !tbaa !16
  %10 = load i32, ptr %4, align 4, !tbaa !16
  %11 = icmp slt i32 %9, %10
  br i1 %11, label %12, label %26

12:                                               ; preds = %8
  call void @llvm.lifetime.start.p0(i64 8, ptr %7) #13
  %13 = load ptr, ptr %3, align 8, !tbaa !57
  %14 = load i32, ptr %6, align 4, !tbaa !16
  %15 = sext i32 %14 to i64
  %16 = getelementptr inbounds float, ptr %13, i64 %15
  %17 = load float, ptr %16, align 4, !tbaa !10
  %18 = fpext float %17 to double
  store double %18, ptr %7, align 8, !tbaa !59
  %19 = load double, ptr %7, align 8, !tbaa !59
  %20 = load double, ptr %7, align 8, !tbaa !59
  %21 = load double, ptr %5, align 8, !tbaa !59
  %22 = call double @llvm.fmuladd.f64(double %19, double %20, double %21)
  store double %22, ptr %5, align 8, !tbaa !59
  call void @llvm.lifetime.end.p0(i64 8, ptr %7) #13
  br label %23

23:                                               ; preds = %12
  %24 = load i32, ptr %6, align 4, !tbaa !16
  %25 = add nsw i32 %24, 1
  store i32 %25, ptr %6, align 4, !tbaa !16
  br label %8, !llvm.loop !61

26:                                               ; preds = %8
  %27 = load double, ptr %5, align 8, !tbaa !59
  call void @llvm.lifetime.end.p0(i64 4, ptr %6) #13
  call void @llvm.lifetime.end.p0(i64 8, ptr %5) #13
  ret double %27
}

; Function Attrs: inlinehint mustprogress uwtable
define internal noundef nonnull align 4 dereferenceable(16) ptr @_ZN2cvdVIfLi4EEERNS_3VecIT_XT0_EEES4_f(ptr noundef nonnull align 4 dereferenceable(16) %0, float noundef %1) #1 {
  %3 = alloca ptr, align 8
  %4 = alloca float, align 4
  %5 = alloca float, align 4
  %6 = alloca i32, align 4
  store ptr %0, ptr %3, align 8, !tbaa !8
  store float %1, ptr %4, align 4, !tbaa !10
  call void @llvm.lifetime.start.p0(i64 4, ptr %5) #13
  %7 = load float, ptr %4, align 4, !tbaa !10
  %8 = fdiv float 1.000000e+00, %7
  store float %8, ptr %5, align 4, !tbaa !10
  call void @llvm.lifetime.start.p0(i64 4, ptr %6) #13
  store i32 0, ptr %6, align 4, !tbaa !16
  br label %9

9:                                                ; preds = %24, %2
  %10 = load i32, ptr %6, align 4, !tbaa !16
  %11 = icmp slt i32 %10, 4
  br i1 %11, label %13, label %12

12:                                               ; preds = %9
  call void @llvm.lifetime.end.p0(i64 4, ptr %6) #13
  br label %27

13:                                               ; preds = %9
  %14 = load ptr, ptr %3, align 8, !tbaa !8
  %15 = load i32, ptr %6, align 4, !tbaa !16
  %16 = call noundef nonnull align 4 dereferenceable(4) ptr @_ZN2cv3VecIfLi4EEixEi(ptr noundef nonnull align 4 dereferenceable(16) %14, i32 noundef %15)
  %17 = load float, ptr %16, align 4, !tbaa !10
  %18 = load float, ptr %5, align 4, !tbaa !10
  %19 = fmul float %17, %18
  %20 = call noundef float @_ZN2cvL13saturate_castIfEET_f(float noundef %19)
  %21 = load ptr, ptr %3, align 8, !tbaa !8
  %22 = load i32, ptr %6, align 4, !tbaa !16
  %23 = call noundef nonnull align 4 dereferenceable(4) ptr @_ZN2cv3VecIfLi4EEixEi(ptr noundef nonnull align 4 dereferenceable(16) %21, i32 noundef %22)
  store float %20, ptr %23, align 4, !tbaa !10
  br label %24

24:                                               ; preds = %13
  %25 = load i32, ptr %6, align 4, !tbaa !16
  %26 = add nsw i32 %25, 1
  store i32 %26, ptr %6, align 4, !tbaa !16
  br label %9, !llvm.loop !27

27:                                               ; preds = %12
  %28 = load ptr, ptr %3, align 8, !tbaa !8
  call void @llvm.lifetime.end.p0(i64 4, ptr %5) #13
  ret ptr %28
}

; Function Attrs: inlinehint mustprogress uwtable
define internal noundef double @_ZN2cvL4normIfLi4ELi1EEEdRKNS_4MatxIT_XT0_EXT1_EEE(ptr noundef nonnull align 4 dereferenceable(16) %0) #1 {
  %2 = alloca ptr, align 8
  store ptr %0, ptr %2, align 8, !tbaa !55
  %3 = load ptr, ptr %2, align 8, !tbaa !55
  %4 = getelementptr inbounds nuw %"class.cv::Matx", ptr %3, i32 0, i32 0
  %5 = getelementptr inbounds [4 x float], ptr %4, i64 0, i64 0
  %6 = call noundef double @_ZN2cvL9normL2SqrIfdEET0_PKT_i(ptr noundef %5, i32 noundef 4)
  %7 = call double @sqrt(double noundef %6) #13, !tbaa !16
  ret double %7
}

; Function Attrs: mustprogress uwtable
define hidden noundef nonnull align 4 dereferenceable(16) ptr @_ZN2cv6dynafudVERNS0_10QuaternionEf(ptr noundef nonnull align 4 dereferenceable(16) %0, float noundef %1) #0 {
  %3 = alloca ptr, align 8
  %4 = alloca float, align 4
  store ptr %0, ptr %3, align 8, !tbaa !3
  store float %1, ptr %4, align 4, !tbaa !10
  %5 = load float, ptr %4, align 4, !tbaa !10
  %6 = load ptr, ptr %3, align 8, !tbaa !3
  %7 = getelementptr inbounds nuw %"class.cv::dynafu::Quaternion", ptr %6, i32 0, i32 0
  %8 = call noundef nonnull align 4 dereferenceable(16) ptr @_ZN2cvdVIfLi4EEERNS_3VecIT_XT0_EEES4_f(ptr noundef nonnull align 4 dereferenceable(16) %7, float noundef %5)
  %9 = load ptr, ptr %3, align 8, !tbaa !3
  ret ptr %9
}

; Function Attrs: mustprogress uwtable
define linkonce_odr hidden noundef float @_ZN2cv6dynafu10Quaternion9normalizeEv(ptr noundef nonnull align 4 dereferenceable(16) %0) #0 comdat align 2 {
  %2 = alloca ptr, align 8
  %3 = alloca float, align 4
  store ptr %0, ptr %2, align 8, !tbaa !3
  %4 = load ptr, ptr %2, align 8
  call void @llvm.lifetime.start.p0(i64 4, ptr %3) #13
  %5 = getelementptr inbounds nuw %"class.cv::dynafu::Quaternion", ptr %4, i32 0, i32 0
  %6 = call noundef double @_ZN2cvL4normIfLi4ELi1EEEdRKNS_4MatxIT_XT0_EXT1_EEE(ptr noundef nonnull align 4 dereferenceable(16) %5)
  %7 = fptrunc double %6 to float
  store float %7, ptr %3, align 4, !tbaa !10
  %8 = load float, ptr %3, align 4, !tbaa !10
  %9 = getelementptr inbounds nuw %"class.cv::dynafu::Quaternion", ptr %4, i32 0, i32 0
  %10 = call noundef nonnull align 4 dereferenceable(16) ptr @_ZN2cvdVIfLi4EEERNS_3VecIT_XT0_EEES4_f(ptr noundef nonnull align 4 dereferenceable(16) %9, float noundef %8)
  %11 = load float, ptr %3, align 4, !tbaa !10
  call void @llvm.lifetime.end.p0(i64 4, ptr %3) #13
  ret float %11
}

; Function Attrs: mustprogress uwtable
define hidden void @_ZN2cv6dynafu14DualQuaternion9normalizeEv(ptr noundef nonnull align 4 dereferenceable(32) %0) #0 align 2 {
  %2 = alloca ptr, align 8
  %3 = alloca float, align 4
  store ptr %0, ptr %2, align 8, !tbaa !28
  %4 = load ptr, ptr %2, align 8
  call void @llvm.lifetime.start.p0(i64 4, ptr %3) #13
  %5 = getelementptr inbounds nuw %"class.cv::dynafu::DualQuaternion", ptr %4, i32 0, i32 0
  %6 = call noundef float @_ZN2cv6dynafu10Quaternion9normalizeEv(ptr noundef nonnull align 4 dereferenceable(16) %5)
  store float %6, ptr %3, align 4, !tbaa !10
  %7 = load float, ptr %3, align 4, !tbaa !10
  %8 = getelementptr inbounds nuw %"class.cv::dynafu::DualQuaternion", ptr %4, i32 0, i32 1
  %9 = call noundef nonnull align 4 dereferenceable(16) ptr @_ZN2cv6dynafudVERNS0_10QuaternionEf(ptr noundef nonnull align 4 dereferenceable(16) %8, float noundef %7)
  call void @llvm.lifetime.end.p0(i64 4, ptr %3) #13
  ret void
}