; Function Attrs: mustprogress nofree nounwind memory(write, argmem: readwrite) uwtable
define hidden void @_ZN2cv6dynafu14DualQuaternion9normalizeEv(ptr noundef nonnull align 4 captures(none) dereferenceable(32) %0) local_unnamed_addr #1 align 2 {
  br label %2

2:                                                ; preds = %2, %1
  %indvars.iv.i.i.i = phi i64 [ 0, %1 ], [ %indvars.iv.next.i.i.i, %2 ]
  %.010.i.i.i = phi double [ 0.000000e+00, %1 ], [ %6, %2 ]
  %3 = getelementptr inbounds nuw float, ptr %0, i64 %indvars.iv.i.i.i
  %4 = load float, ptr %3, align 4, !tbaa !3
  %5 = fpext float %4 to double
  %6 = tail call double @llvm.fmuladd.f64(double %5, double %5, double %.010.i.i.i)
  %indvars.iv.next.i.i.i = add nuw nsw i64 %indvars.iv.i.i.i, 1
  %exitcond.not.i.i.i = icmp eq i64 %indvars.iv.next.i.i.i, 4
  br i1 %exitcond.not.i.i.i, label %_ZN2cvL4normIfLi4ELi1EEEdRKNS_4MatxIT_XT0_EXT1_EEE.exit.i, label %2, !llvm.loop !35

_ZN2cvL4normIfLi4ELi1EEEdRKNS_4MatxIT_XT0_EXT1_EEE.exit.i: ; preds = %2
  %7 = tail call noundef double @sqrt(double noundef %6) #18, !tbaa !9
  %8 = fptrunc double %7 to float
  %9 = fdiv float 1.000000e+00, %8
  br label %10

10:                                               ; preds = %10, %_ZN2cvL4normIfLi4ELi1EEEdRKNS_4MatxIT_XT0_EXT1_EEE.exit.i
  %indvars.iv.i.i = phi i64 [ 0, %_ZN2cvL4normIfLi4ELi1EEEdRKNS_4MatxIT_XT0_EXT1_EEE.exit.i ], [ %indvars.iv.next.i.i, %10 ]
  %11 = getelementptr inbounds nuw [4 x float], ptr %0, i64 0, i64 %indvars.iv.i.i
  %12 = load float, ptr %11, align 4, !tbaa !3
  %13 = fmul float %9, %12
  store float %13, ptr %11, align 4, !tbaa !3
  %indvars.iv.next.i.i = add nuw nsw i64 %indvars.iv.i.i, 1
  %exitcond.not.i.i = icmp eq i64 %indvars.iv.next.i.i, 4
  br i1 %exitcond.not.i.i, label %_ZN2cv6dynafu10Quaternion9normalizeEv.exit, label %10, !llvm.loop !30

_ZN2cv6dynafu10Quaternion9normalizeEv.exit:       ; preds = %10
  %14 = getelementptr inbounds nuw i8, ptr %0, i64 16
  br label %15

15:                                               ; preds = %15, %_ZN2cv6dynafu10Quaternion9normalizeEv.exit
  %indvars.iv.i.i2 = phi i64 [ 0, %_ZN2cv6dynafu10Quaternion9normalizeEv.exit ], [ %indvars.iv.next.i.i3, %15 ]
  %16 = getelementptr inbounds nuw [4 x float], ptr %14, i64 0, i64 %indvars.iv.i.i2
  %17 = load float, ptr %16, align 4, !tbaa !3
  %18 = fmul float %9, %17
  store float %18, ptr %16, align 4, !tbaa !3
  %indvars.iv.next.i.i3 = add nuw nsw i64 %indvars.iv.i.i2, 1
  %exitcond.not.i.i4 = icmp eq i64 %indvars.iv.next.i.i3, 4
  br i1 %exitcond.not.i.i4, label %_ZN2cv6dynafudVERNS0_10QuaternionEf.exit, label %15, !llvm.loop !30

_ZN2cv6dynafudVERNS0_10QuaternionEf.exit:         ; preds = %15
  ret void
}